; Function Attrs: mustprogress uwtable
define void @_ZN7testing8internal24HasNewFatalFailureHelper20ReportTestPartResultERKNS_14TestPartResultE(ptr noundef nonnull align 8 captures(none) dereferenceable(24) %0, ptr noundef nonnull align 8 dereferenceable(112) %1) unnamed_addr #3 align 2 {
  %3 = load i32, ptr %1, align 8, !tbaa !946
  %4 = icmp eq i32 %3, 2
  br i1 %4, label %5, label %7

5:                                                ; preds = %2
  %6 = getelementptr inbounds nuw i8, ptr %0, i64 8
  store i8 1, ptr %6, align 8, !tbaa !950
  br label %7

7:                                                ; preds = %5, %2
  %8 = getelementptr inbounds nuw i8, ptr %0, i64 16
  %9 = load ptr, ptr %8, align 8, !tbaa !953
  %10 = load ptr, ptr %9, align 8, !tbaa !32
  %11 = getelementptr inbounds nuw i8, ptr %10, i64 16
  %12 = load ptr, ptr %11, align 8
  tail call void %12(ptr noundef nonnull align 8 dereferenceable(8) %9, ptr noundef nonnull align 8 dereferenceable(112) %1)
  ret void
}